; Function Attrs: nounwind uwtable
define dso_local void @logicalrep_write_origin(ptr noundef %0, ptr noundef %1, i64 noundef %2) local_unnamed_addr #0 {
  tail call void @enlargeStringInfo(ptr noundef %0, i32 noundef 1) #8
  tail call void @llvm.experimental.noalias.scope.decl(metadata !103)
  %4 = load ptr, ptr %0, align 8, !alias.scope !103
  %5 = getelementptr inbounds nuw i8, ptr %0, i64 8
  %6 = load i32, ptr %5, align 8, !alias.scope !103
  %7 = sext i32 %6 to i64
  %8 = getelementptr inbounds i8, ptr %4, i64 %7
  store i8 79, ptr %8, align 1, !noalias !103
  %9 = add i32 %6, 1
  store i32 %9, ptr %5, align 8, !alias.scope !103
  tail call void @enlargeStringInfo(ptr noundef nonnull %0, i32 noundef 8) #8
  tail call void @llvm.experimental.noalias.scope.decl(metadata !106)
  %10 = tail call i64 @llvm.bswap.i64(i64 %2)
  %11 = load ptr, ptr %0, align 8, !alias.scope !106
  %12 = load i32, ptr %5, align 8, !alias.scope !106
  %13 = sext i32 %12 to i64
  %14 = getelementptr inbounds i8, ptr %11, i64 %13
  store i64 %10, ptr %14, align 1, !noalias !106
  %15 = add i32 %12, 8
  store i32 %15, ptr %5, align 8, !alias.scope !106
  tail call void @pq_sendstring(ptr noundef nonnull %0, ptr noundef %1) #8
  ret void
}